(lp0
F-290.36119334038455
aF-255.2485900742849
aF-263.0047013042853
aF-225.21269093897752
aF-411.11368145655035
aF-421.51519171232155
aF-238.3443927313007
aF-206.5218775292824
aF-327.02751510523603
aF-243.03101618863704
aF-336.1001088024793
aF-230.95001706329728
aF-232.5941245547508
aF-277.9389934992436
aF-187.1916290325208
aF-389.20191846190886
aF-311.74237335042926
aF-456.938191532654
aF-524.5718175597835
aF-270.3394347987401
aF-437.4218368558517
aF-237.91885615031921
aF-244.39592861126746
aF-246.88788840922453
aF-475.5273293553551
aF-253.43122274267586
aF-227.78857576336483
aF-266.86416434649965
aF-336.5947280409876
aF-297.91114829064344
aF-251.43359938271865
aF-292.3742143833517
aF-214.52913036743493
aF-233.91287696403066
aF-309.4712371573683
aF-348.5980522226695
aF-224.84290772331093
aF-261.1484960703172
aF-214.50210071731152
aF-245.12885308068587
aF-239.82086088653202
aF-260.81984826388083
aF-360.716377356925
aF-201.5978470917673
aF-244.9780770252931
aF-411.1379497950092
aF-253.66139119250735
aF-322.890190812215
aF-350.10745732523475
aF-268.56640840892914
aF-196.61281902025897
aF-351.95238325222607
aF-244.15559856095177
aF-224.9466586186758
aF-195.617453630055
aF-253.8804138998706
aF-238.68856773107805
aF-262.9119640974698
aF-384.0980317531061
aF-175.73364303785698
aF-258.74501049696306
aF-299.08685254637845
aF-230.69597070205126
aF-205.96190217352367
aF-221.80203198645128
aF-264.36983715705605
aF-209.0814337452551
aF-226.37563963488043
aF-244.87665808820105
aF-233.12617158831725
aF-193.60383776623507
aF-327.3159837618163
aF-317.3063551320177
aF-155.33130514563373
aF-287.5842100101382
aF-216.69336585827622
aF-324.21849987166195
aF-249.76321648987025
aF-251.8810659933004
aF-312.674529219143
aF-178.93447428279654
aF-340.47380941522437
aF-235.1151590352465
aF-324.31281992808994
aF-272.22293810980153
aF-357.9109734638843
aF-179.95356058576812
aF-347.26786309838997
aF-333.77810625592645
aF-231.2617829540911
aF-183.29248230559466
aF-333.4277389229914
aF-247.9322888415835
aF-345.72061685002075
aF-322.6539916373861
aF-251.43636654381314
aF-270.9295897612839
aF-206.15221684915065
aF-458.92465279812166
aF-264.14753270825776
aF-322.82659639525576
aF-198.79190376710028
aF-220.00941378913217
aF-215.39741388817717
aF-207.06441204935234
aF-224.0472836177225
aF-209.45218603027553
aF-247.11810550484893
aF-232.1357615720348
aF-323.69103603203894
aF-217.11122582599063
aF-248.66749394089345
aF-244.82331296955215
aF-216.5619461403128
aF-267.15635682711604
aF-343.162040157579
aF-316.5154078529851
aF-373.05146347111173
aF-298.83158286905007
aF-318.87182125452165
aF-321.04554315152643
aF-319.4529076147353
aF-209.94272080379912
aF-415.7063771770734
aF-262.70849953175883
aF-289.4471138516054
aF-302.78977753472356
aF-338.57826120807533
aF-264.1982237747874
aF-205.58293158254418
aF-330.17467067453043
aF-300.2427425031048
aF-375.02155998353606
aF-235.43470183400373
aF-471.73794112282167
aF-281.577269505642
aF-277.0595410911868
aF-239.75423840766626
aF-233.0593847435196
aF-201.2301541559365
aF-194.73603018890392
aF-336.8902043913174
aF-358.9870612910274
aF-230.855883449783
aF-278.7014150658282
aF-377.22201554577936
aF-350.3015392852309
aF-475.6258364145985
aF-309.37896256556013
aF-226.29232770901976
aF-416.17475568142083
aF-255.71268463937244
aF-305.46193837404724
aF-310.3491817896454
aF-278.2334895872244
aF-319.2869895519145
aF-185.41916858604412
aF-348.8101874588179
aF-222.46535678557586
aF-217.11614037879986
aF-205.51882106498013
aF-306.25913801795963
aF-359.6946277190574
aF-493.08957831747284
aF-271.5664223121249
aF-288.8514432114899
aF-339.3685465018788
aF-269.0964729855456
aF-368.44275262332036
aF-326.60013256410843
aF-283.961944365991
aF-234.38242511854386
aF-447.63346668963914
aF-212.38511282650708
aF-226.01429340735743
aF-355.94915677651045
aF-351.0999702965418
aF-232.64052348393005
aF-274.40201020154035
aF-242.88811128644323
aF-222.4220291361508
aF-216.02292727261786
aF-179.89290289667738
aF-249.0852641359407
aF-332.4423644131926
aF-301.8895123882001
aF-290.02189947814816
aF-403.2197556912278
aF-269.30673452572995
aF-269.42726075558915
aF-244.82337190148817
aF-315.7530072872099
aF-354.67010248537747
aF-330.8657949016062
aF-288.1478085551418
aF-272.7120837463682
aF-336.4451691331045
aF-289.3249999818366
aF-262.03932224083184
aF-267.70870728265294
aF-264.9956478287875
aF-328.0417697823711
aF-258.5005275006431
aF-221.66962376642823
aF-328.9057523098143
aF-336.91831625558495
aF-203.21330392381788
aF-342.90538628414095
aF-231.14313467425382
aF-284.488636421783
aF-306.1537209606143
aF-261.3164219518717
aF-298.61562680823636
aF-202.9195308463816
aF-217.37299351387392
aF-297.56914476778394
aF-297.12060981143725
aF-262.0277315008449
aF-236.40262380407816
aF-294.2965602183268
aF-286.2845221524943
aF-319.31412813517085
aF-368.47707050640724
aF-267.89719661212183
aF-212.22216982852575
aF-270.4587426836204
aF-239.0667500855472
aF-397.6605235313813
aF-351.1700143304361
aF-264.0906613955684
aF-257.09634347992585
aF-262.3671530253977
aF-201.6717305898149
aF-317.92160506852224
aF-361.3119149465184
aF-245.0541087451238
aF-326.4187698109421
aF-216.10504692733704
aF-305.8350363797599
aF-247.99219568776886
aF-174.56357003445746
aF-167.15238602868553
aF-233.62171359448277
aF-442.06481473662654
aF-480.95636685319823
aF-327.23263941482566
aF-286.3655869886063
aF-389.5063948320968
aF-237.61259735614428
aF-343.12669738901434
aF-264.79697520590435
aF-316.97637250061223
aF-271.12346278215347
aF-307.3148953344771
aF-310.1150256191395
aF-284.78433512304974
aF-382.59885899663965
aF-212.43289419225772
aF-403.5568170273587
aF-214.17045606537314
aF-286.4708385842686
aF-381.8731610004398
aF-246.97243939848238
aF-255.7489908651974
aF-268.3339638413272
aF-294.48002150104077
aF-304.3828921364355
aF-340.136405040261
aF-328.5267227734329
aF-317.93212944753964
aF-213.43828432343102
aF-340.88731134212657
aF-288.5713454854898
aF-420.18882614603564
aF-476.3143053115581
aF-386.8292660997193
aF-267.03661481370256
aF-269.95638303919975
aF-352.7715113220903
aF-209.48118124602075
aF-354.98930599911637
aF-255.75477019439919
aF-248.77584036441178
aF-345.0400597255484
aF-245.30795961817458
aF-344.835260383775
aF-198.53175600595384
aF-269.5442845965678
aF-313.61478667468987
aF-224.65774896960352
aF-301.6262665548303
aF-203.96334085082094
aF-259.22448308652145
aF-419.04694395146305
aF-339.6323841992966
aF-213.6815280055647
aF-273.9263335203286
aF-218.1049043248188
aF-378.50481272699636
aF-230.4953164907243
aF-331.64983146545467
aF-399.37235406615395
aF-204.02894458497795
aF-282.3697016516283
aF-388.46707775220455
aF-216.80239978123114
aF-378.81206846764934
aF-209.10845754348415
aF-273.0361594950958
aF-264.6323071750506
aF-211.671545433522
aF-245.76668287355244
aF-383.64680109216033
aF-234.27119195889955
aF-295.5284890230155
aF-257.9178766799743
aF-256.8244052763011
aF-438.7601687578118
aF-333.043333441653
aF-261.7232162876963
aF-262.50864610744395
aF-304.9767338796335
aF-225.58367735515057
aF-288.8084731035434
aF-222.1076297143742
aF-226.61814588373505
aF-346.58500187980894
aF-279.4757615463395
aF-205.07838689590002
aF-211.67853786961825
aF-240.41593035509766
aF-318.8137902020051
aF-270.08666431105905
aF-385.30087743622107
aF-360.17738576627437
aF-302.0957781287042
aF-352.3680438617452
aF-188.61206129466925
aF-338.4614385080916
aF-269.8584969865358
aF-347.0690117995872
aF-369.07239311189693
aF-267.9312407265018
aF-225.37466837663538
aF-463.1011875965936
aF-420.7036284848187
aF-288.8525204773778
aF-419.70377488690144
aF-298.1845979849604
aF-270.2510510483844
aF-214.3297831945544
aF-376.2672721619284
aF-194.0433022781657
aF-369.8997041697931
aF-332.9574701180394
aF-198.21397474364784
aF-308.5607751814818
aF-191.5029966092431
aF-231.95374535545838
aF-245.92992711420425
aF-476.02706338356825
aF-352.68990009550754
aF-271.96564720709597
aF-299.2105630059958
aF-207.63006018522023
aF-374.29093061683545
aF-195.67929798672108
aF-192.39036414707817
aF-197.7318874260451
aF-214.22672592799347
aF-415.8372687199706
aF-206.1517783674797
aF-192.42912141551435
aF-344.24519452967763
aF-250.95925103158672
aF-214.5211881552002
aF-417.9671436729786
aF-260.2337814816523
aF-302.82063761454066
aF-335.75145113935156
aF-242.4965596521615
aF-206.83678845904245
aF-267.0599465756943
aF-342.71373420571894
aF-270.2083060571483
aF-243.9191559931508
aF-219.7587522036498
aF-275.9362690685029
aF-346.4693355047313
aF-253.1117838256306
aF-252.66465978318237
aF-257.5056154580398
aF-195.90670985023172
aF-403.1489771350495
aF-290.03943069394523
aF-295.16787432915265
aF-317.1273019056034
aF-288.7509866120116
aF-360.08665153708256
aF-363.23781251967426
aF-382.92682817389516
aF-345.550154618308
aF-281.2182728040463
aF-291.7535610866119
aF-390.9556683129463
aF-272.1937894986228
aF-308.7807978847391
aF-317.04341180812145
aF-192.7369835549536
aF-399.46622865270245
aF-151.4365028209731
aF-267.00347833108077
aF-287.4714235636526
aF-320.3055258499505
aF-312.52351420313596
aF-254.70349826570921
aF-224.37835028018387
aF-267.8982532711091
aF-361.4422559673392
aF-384.83364521716845
aF-281.638980666207
aF-290.6980577001661
aF-283.0821894177466
aF-234.81598886419647
aF-274.19909708841345
aF-248.31170260242374
aF-303.98654393540755
aF-262.41366582961456
aF-371.5306923531865
aF-290.8653950269935
aF-356.5742251742374
aF-335.5584713803695
aF-273.1776812815898
aF-280.8496093036302
aF-285.380949310948
aF-186.48812842100563
aF-346.8700615220492
aF-440.1913413023813
aF-392.64803747495023
aF-317.06481325673656
aF-183.27338959377465
aF-336.47731431830084
aF-276.18787747972385
aF-357.69874279916166
aF-326.8376977847984
aF-233.51487332461667
aF-333.43201927759617
aF-213.9491884114899
aF-215.1411905031971
aF-647.0060407924591
aF-226.36003928981776
aF-231.6251980168186
aF-252.92266269755973
aF-272.3987506426493
aF-312.0903360752444
aF-273.4126003576563
aF-461.5906026771033
aF-481.816987336779
aF-253.63863547713558
aF-409.5780106419331
aF-282.08814078502843
aF-330.2021005952879
aF-326.03492082835476
aF-188.60349642879817
aF-298.42354403375174
aF-270.7737797463729
aF-280.34773771164055
aF-277.3026672287602
aF-298.5852300287248
aF-403.25334200999845
aF-277.795547772121
aF-280.98129224484313
aF-250.89132315152295
aF-148.23550172967188
aF-252.13238459018734
aF-490.0367316180248
aF-470.41947895738525
aF-295.8002220509377
aF-439.45154505154557
aF-495.48013758023905
aF-383.70474812641237
aF-323.7726829384809
aF-303.31935694020166
aF-200.89109630954553
aF-292.5813669835337
aF-280.4691080805329
aF-159.92566950416014
aF-281.38980247346564
aF-288.2593680867114
aF-291.92733059977115
aF-219.43828575010588
aF-393.99428009920774
aF-294.56664595974064
aF-239.8098848879264
aF-268.719701621979
aF-300.4233081619855
aF-257.5073883702999
aF-304.57620971693933
aF-299.1646060735496
aF-282.7279941585688
aF-294.18266798950526
aF-241.21950996193405
aF-457.61099248403906
aF-335.6822345919702
aF-343.79159035069745
aF-335.25830220106127
aF-192.3098406116068
aF-318.2408197768611
aF-255.95870317757388
aF-336.0693818406913
aF-357.17794968065624
aF-322.68293116878345
aF-325.43834596712276
aF-212.91929098391356
aF-314.25620899128114
aF-228.7414131472048
aF-378.5386270207282
aF-383.33011550086565
aF-258.4826384597784
aF-208.61236144379788
aF-322.93493692883317
aF-302.181217581383
aF-391.13742873051814
aF-292.1257235799107
aF-378.96995654558054
aF-407.0904187038411
aF-301.78012248086935
aF-356.81481175399165
aF-312.44339645129344
aF-488.0685388374154
aF-305.46192098671804
aF-361.4009253244669
aF-283.13630103250773
aF-355.6406412427058
aF-207.58777741815976
aF-255.69474058002757
aF-254.9043454510293
aF-255.21358699873971
aF-355.04098574159656
aF-480.3186072193381
aF-428.97502868579346
aF-290.87742230112735
aF-223.25754671117923
aF-201.35998513145492
aF-284.5467111318115
aF-331.4612717768643
aF-242.8974144643002
aF-292.9407754430239
aF-322.3214635463382
aF-328.0464827423321
aF-135.23002890472245
aF-258.2470142418994
aF-212.9050883351425
aF-262.1950998034161
aF-325.7925684325013
aF-302.27311446371783
aF-280.7633514387342
aF-238.43011671142503
aF-274.13594673243404
aF-196.85070219165624
aF-217.68350258239346
aF-276.00562072628395
aF-214.49484503442724
aF-251.9120375649487
aF-348.555238968041
aF-230.51663418191117
aF-308.0025319840294
aF-202.5546188432523
aF-224.53508933017085
aF-363.6274979902982
aF-198.83071555351987
aF-250.97804388167927
aF-283.31325397089347
aF-233.80788115454894
aF-366.95521000484865
aF-430.6255212807627
aF-253.90324737879342
aF-199.69816621221474
aF-292.4559754715234
aF-304.1048491981755
aF-262.9452814907414
aF-270.59789324550775
aF-216.12815448643917
aF-303.0840604649547
aF-210.48845969797645
aF-316.16178118794613
aF-315.7108008212535
aF-256.7786258268019
aF-325.83715473768217
aF-259.75681231237866
aF-335.7349244345721
aF-347.0412561055321
aF-229.68966505838367
aF-214.93971070389026
aF-219.39759575848527
aF-233.30295643128943
aF-284.26179261866673
aF-245.35001179987634
aF-532.9101771473069
aF-261.8746279782128
aF-212.67088295939226
aF-341.65484477282627
aF-265.91803482727113
aF-832.8240406411655
aF-273.1177942566848
aF-269.0536442239719
aF-262.3489182944968
aF-336.0164758189651
aF-294.1752800829102
aF-288.24942396910046
aF-316.77709401012265
aF-294.50713607023323
aF-257.6020849965513
aF-241.91611314797626
aF-371.4458104701347
aF-221.42691736073016
aF-564.8941065662523
aF-402.82988324944745
aF-432.5154961988128
aF-387.28151709798533
aF-371.2831382144495
aF-259.857320454558
aF-199.24670332671235
aF-343.5054011044706
aF-355.03727894461537
aF-344.1881371074803
aF-265.2485385603332
aF-302.72652557180453
aF-354.23330984887866
aF-317.35349843870574
aF-314.5339206345467
aF-268.00935831079477
aF-357.8653151720307
aF-269.87451198120675
aF-316.5262286448891
aF-399.6788513337108
aF-305.8226648092039
aF-445.95693524023034
aF-241.4706288621735
aF-236.93814906902415
aF-233.69480592360668
aF-324.18174267257865
aF-285.57635349588827
aF-346.2954008036554
aF-265.26160675098873
aF-235.902364863478
aF-333.36641319867715
aF-362.03116424158577
aF-478.77332420115084
aF-388.8244310784827
aF-302.49905378504826
aF-271.6721730324723
aF-213.04582338693479
aF-286.46629262399773
aF-409.02099879884116
aF-207.8210337465392
aF-257.86290595719
aF-312.722782633869
aF-234.91906612018366
aF-229.39896063943
aF-637.4891350605175
aF-365.553890476175
aF-354.2109069161939
aF-279.4355014539582
aF-238.20050087552562
aF-263.6069287565397
aF-196.8599148595618
aF-214.54431983272886
aF-280.0363324659359
aF-296.01720554133607
aF-199.57226882830787
aF-406.79843072770245
aF-227.70069475697346
aF-229.7628144128811
aF-168.16206827210794
aF-300.4453394120423
aF-585.0039939419376
aF-339.32675190476806
aF-288.1332491190362
aF-324.18094025664266
aF-204.8377629595991
aF-317.9034667215837
aF-291.99866921261906
aF-297.6009156156489
aF-269.3776351095393
aF-238.6514067482525
aF-317.4234648974424
aF-189.57468821580005
aF-177.307049218668
aF-374.6733827198999
aF-374.7421837869457
aF-584.7414953239553
aF-284.16613500966866
aF-234.0443274016051
aF-276.69599118975947
aF-366.7094507839218
aF-223.03946917569135
aF-361.8553604498101
aF-273.04982644563535
aF-549.3595822761085
aF-197.61868385283083
aF-423.10390669202195
aF-257.8115144353981
aF-215.46516728389813
aF-230.91462926317868
aF-272.1002513485484
aF-348.371123131736
aF-400.1853581247102
aF-215.52749320196358
aF-213.97792385229027
aF-220.05957109941147
aF-275.0707735527584
aF-369.107419344053
aF-238.20931068833417
aF-374.60517293906327
aF-256.26461698867763
aF-245.5669791946378
aF-285.131038235351
aF-318.45018194832295
aF-302.3827408795551
aF-260.53693676981857
aF-249.61483535696934
aF-234.47335635972664
aF-194.58114354793693
aF-345.25833077412733
aF-356.9717117232514
aF-272.9649167168207
aF-302.11156502960955
aF-183.65294346508074
aF-199.83898460203434
aF-390.9744885730548
aF-273.95362100735036
aF-293.91968323478454
aF-300.6298904538215
aF-241.69545723738554
aF-285.11533041906097
aF-233.10635789599104
aF-264.54270236220077
aF-336.2941048505931
aF-188.49637886143032
aF-273.7947137511111
aF-407.58823958149276
aF-192.08362537194773
aF-343.48087960017784
aF-301.2149864024147
aF-216.119839999856
aF-205.2114870281911
aF-203.81735104909043
aF-226.8499657177544
aF-373.2385721536483
aF-345.74171689964805
aF-256.0602433467317
aF-303.4198085080476
aF-274.56094726757505
aF-245.49806810566517
aF-282.2003277238591
aF-590.2581976559643
aF-194.49137913136494
aF-330.3074550534132
aF-306.4038861847281
aF-146.28300118618674
aF-242.24720949404227
aF-391.2377116949475
aF-367.33234640789317
aF-251.33147011322373
aF-318.9012471433556
aF-151.80348286572877
aF-346.29069827880494
aF-235.0421089375269
aF-354.3201079683341
aF-324.5467551926838
aF-421.6262183010871
aF-239.09663575893646
aF-336.68889591734387
aF-367.8097137571952
aF-240.4992820293202
aF-460.5496680445766
aF-221.67551264216783
aF-299.7702221248442
aF-221.00802369710408
aF-189.7532258358307
aF-315.63395633047475
aF-343.9636671349583
aF-324.61422239226835
aF-324.98705479127295
aF-193.17634006086945
aF-345.06033711094244
aF-348.80298805253915
aF-326.66077380193985
aF-326.5858757036462
aF-372.91026297827875
aF-356.1793046383182
aF-274.62739090745015
aF-178.7071395353674
aF-298.3178522030743
aF-335.61480101878806
aF-305.25556003508865
aF-385.11534945741704
aF-253.69051012400283
aF-227.72455530773183
aF-361.4960917932698
aF-266.3691827088241
aF-329.0212275393481
aF-285.6030526647075
aF-315.72404017261715
aF-359.850645051142
aF-266.77004662930324
aF-366.7680373810771
aF-388.5134219701557
aF-279.49783848708273
aF-217.86852487295567
aF-344.1429266778242
aF-357.9777532693686
aF-309.95005206098415
aF-325.2442689607554
aF-421.63960232973255
aF-324.16645111420695
aF-341.28849362863025
aF-236.35276282972535
aF-364.27053775081396
aF-341.36634823975294
aF-389.0430371495995
aF-352.7506858506274
aF-336.9685960999688
aF-251.57273704849575
aF-336.19274132530876
aF-222.7789973577173
aF-142.42434405255761
aF-250.99251490642752
aF-223.3748104045671
aF-352.82495740599126
aF-276.27706436921727
aF-299.3963750878736
aF-331.9300463238604
aF-352.287763775258
aF-421.76662222546145
aF-190.36336891007485
aF-273.7787155802019
aF-326.02899625887676
aF-214.42955692905926
aF-246.7802459837187
aF-309.50190936553264
aF-305.01351754293285
aF-303.1690436351924
aF-328.511741268108
aF-365.3749971554167
aF-233.86393092676488
aF-256.4033820453766
aF-283.1757476849985
aF-294.8330503883035
aF-386.48325584659165
aF-369.9092530390083
aF-308.17143493616334
aF-256.14969287568783
aF-226.10886736342985
aF-286.4924761958043
aF-282.9757604441703
aF-306.4125385478718
aF-196.23665827849356
aF-278.70694747586396
aF-296.8463727122828
aF-312.9436765407057
aF-312.59721131009064
aF-351.2374114831745
aF-312.8457685826223
aF-183.39550951563476
aF-277.0092612866564
aF-266.36276661891696
aF-341.8402532927676
aF-335.1801524698327
aF-286.61422869521147
aF-390.74088929631927
aF-342.50275500919594
aF-358.3659047081689
aF-291.38512196713947
aF-496.52888039408714
aF-316.5045656531237
aF-218.85063170128467
aF-217.27627160104316
aF-233.43847523384775
aF-165.96949397263498
aF-352.6145967227736
aF-331.2999875868225
aF-276.7291792563446
aF-265.49178781937616
aF-190.72695756915115
aF-292.7962457749936
aF-241.49049934132407
aF-263.09354076997073
aF-346.58505791985516
aF-234.1722264311939
aF-303.0670633628793
aF-195.34126851008665
aF-160.38938395503274
aF-358.91990464726706
aF-179.53465307058298
aF-381.0227790632447
aF-285.5242433288479
aF-286.7486925191979
aF-168.80569814898033
aF-342.1414357222743
aF-219.12918850965494
aF-324.2754109103067
aF-286.8369042359039
aF-505.8517049765274
aF-419.203364581791
aF-219.78613514736767
aF-207.9650311956923
aF-314.8235074050473
aF-346.52263691746595
aF-243.80095176218313
aF-448.18284939452974
aF-183.63498477195847
aF-244.33071302957478
aF-220.39672239330687
aF-328.5832510330994
aF-241.45136369396513
aF-236.22046852866458
aF-273.0916141073666
aF-309.60229165016653
aF-316.1184309497725
aF-284.68334793637024
aF-294.93939007267466
aF-546.9810921615872
aF-197.19244343925712
aF-354.3890852872211
aF-313.6303371720065
aF-165.34355798928706
aF-278.3693984020318
aF-352.70627422159737
aF-303.4999787007288
aF-413.51746939932656
aF-333.69256948567175
aF-290.5715426112098
aF-211.19382604513854
aF-365.3034194999189
aF-196.17212499535196
aF-237.8444154970203
aF-387.3104152604342
aF-226.79980691908295
aF-302.3051984667502
aF-218.54370436097267
aF-399.52872912384765
aF-276.47993047538307
aF-351.8449078430546
aF-407.46590272704606
aF-267.40398455544744
aF-252.91776864112956
aF-440.06442526351265
aF-326.75409100272475
aF-237.80319659265862
aF-258.441996090439
aF-403.345985690047
aF-349.32512212546345
aF-268.20703096109406
aF-268.86422710567473
aF-271.18866401213995
aF-244.42115569672308
aF-477.0052175295444
aF-211.518320780461
aF-380.23917435513476
aF-234.35654390979684
aF-304.5707629842411
aF-342.65083171723177
aF-317.07273745794834
aF-345.43781563857596
aF-363.49295353477135
aF-272.3186087311953
aF-248.1606665377043
aF-240.48148133794987
aF-441.03400659892685
aF-323.9705661701128
aF-296.62214959216317
aF-179.6300785935332
aF-467.2840780694977
aF-394.8821087594527
aF-218.9857032086568
aF-303.569474311165
aF-230.5336257444304
aF-237.61401515069917
aF-234.03136637252047
aF-219.39626685405386
aF-326.56393109142704
aF-188.9783260122044
aF-295.51729027530723
aF-222.08661370098275
aF-272.1184576679534
aF-238.09547227594626
aF-273.9358055260841
aF-249.9532637903556
aF-332.95686817778187
aF-260.9115402187389
aF-246.98996122241678
aF-358.8203919451357
aF-239.4007693868861
aF-356.1119638003841
aF-348.10122545974207
aF-305.0711632235458
aF-287.5329445804881
aF-183.72992314782053
a.